; Function Attrs: mustprogress nounwind willreturn uwtable
define range(i32 -32, 1) i32 @pmix_bfrops_base_copy_coord(ptr noundef writeonly captures(none) %0, ptr noundef readonly captures(none) %1, i16 noundef zeroext %2) local_unnamed_addr #13 {
  %4 = tail call noalias noundef dereferenceable_or_null(24) ptr @malloc(i64 noundef 24) #25
  %5 = icmp eq ptr %4, null
  br i1 %5, label %pmix_bfrops_base_tma_copy_coord.exit, label %6, !prof !43

6:                                                ; preds = %3
  %7 = getelementptr inbounds nuw i8, ptr %4, i64 8
  store i64 0, ptr %7, align 8
  %8 = load i8, ptr %1, align 8, !tbaa !125
  store i8 %8, ptr %4, align 8, !tbaa !125
  %9 = getelementptr inbounds nuw i8, ptr %1, i64 16
  %10 = load i64, ptr %9, align 8, !tbaa !128
  %11 = getelementptr inbounds nuw i8, ptr %4, i64 16
  store i64 %10, ptr %11, align 8, !tbaa !128
  %.not.i.i = icmp eq i64 %10, 0
  br i1 %.not.i.i, label %19, label %12

12:                                               ; preds = %6
  %13 = shl i64 %10, 2
  %14 = tail call noalias noundef ptr @malloc(i64 noundef %13) #25
  store ptr %14, ptr %7, align 8, !tbaa !129
  %15 = icmp eq ptr %14, null
  br i1 %15, label %pmix_bfrops_base_tma_coord_destruct.exit.i, label %16, !prof !43

16:                                               ; preds = %12
  %17 = getelementptr inbounds nuw i8, ptr %1, i64 8
  %18 = load ptr, ptr %17, align 8, !tbaa !129
  tail call void @llvm.memcpy.p0.p0.i64(ptr nonnull align 4 %14, ptr align 4 %18, i64 %13, i1 false)
  br label %19

pmix_bfrops_base_tma_coord_destruct.exit.i:       ; preds = %12
  tail call void @free(ptr noundef nonnull %4) #23
  br label %pmix_bfrops_base_tma_copy_coord.exit

19:                                               ; preds = %16, %6
  store ptr %4, ptr %0, align 8, !tbaa !212
  br label %pmix_bfrops_base_tma_copy_coord.exit

pmix_bfrops_base_tma_copy_coord.exit:             ; preds = %3, %pmix_bfrops_base_tma_coord_destruct.exit.i, %19
  %.0.i = phi i32 [ -32, %3 ], [ 0, %19 ], [ -32, %pmix_bfrops_base_tma_coord_destruct.exit.i ]
  ret i32 %.0.i
}